Certificate:
    Data:
        Version: 3 (0x2)
        Serial Number: 1 (0x1)
    Signature Algorithm: sha256WithRSAEncryption
        Issuer: C=SP, ST=Madrid, L=Madrid, O=SER Corporation, OU=Marketing, CN=CA
        Validity
            Not Before: Mar  6 11:18:22 2018 GMT
            Not After : Mar  6 11:18:22 2019 GMT
        Subject: C=SP, ST=Madrid, O=SER Corporation, OU=Marketing, CN=usuario1
        Subject Public Key Info:
            Public Key Algorithm: rsaEncryption
                Public-Key: (2048 bit)
                Modulus:
                    00:d5:28:a9:d2:df:2b:7d:45:0f:79:11:0e:ee:66:
                    69:3d:75:18:a1:d4:d2:db:6f:4e:3e:b5:66:ee:4d:
                    9c:41:e7:c1:2b:db:cc:96:48:8b:ea:a2:5c:19:4b:
                    b7:73:10:9f:8a:71:8d:91:d2:63:e0:89:ff:b8:13:
                    aa:4e:be:00:5b:78:40:91:8d:db:5f:c7:91:87:9d:
                    9e:7b:d8:77:8e:e0:27:0b:42:c6:84:0f:c2:15:44:
                    8c:7d:77:45:ea:ad:29:17:fb:3f:e3:00:70:68:05:
                    87:f4:11:01:fd:31:a3:8e:8d:51:f7:ca:c1:77:55:
                    a5:fa:d8:05:26:e3:a3:53:f5:76:64:2d:47:0d:e8:
                    ee:88:83:f6:ef:a8:f1:f3:35:3b:ce:4c:3e:8d:7c:
                    c8:11:27:9a:6e:8e:52:c1:13:c9:98:b9:36:91:96:
                    2b:08:bf:b1:7b:24:71:94:3c:15:a5:ee:fc:cf:94:
                    3c:e3:e5:c1:f8:fc:4a:36:5b:15:ec:26:cd:a9:da:
                    72:f8:53:9d:62:84:38:9a:4d:8c:cc:a9:c1:66:be:
                    15:ff:51:4e:37:06:8a:ab:e8:47:eb:0e:92:c6:78:
                    59:96:1a:8f:d4:3c:db:27:6a:e0:48:ef:c8:93:95:
                    ac:c5:a6:c8:c2:7e:04:a7:34:02:75:d7:5e:79:d0:
                    fd:89
                Exponent: 65537 (0x10001)
        X509v3 extensions:
            X509v3 Basic Constraints: 
                CA:FALSE
            Netscape Comment: 
                OpenSSL Generated Certificate
            X509v3 Subject Key Identifier: 
                9B:96:BD:40:97:5B:64:CA:F2:CF:BA:2E:08:1C:08:21:44:CA:84:93
            X509v3 Authority Key Identifier: 
                keyid:84:67:A3:00:F4:8A:C5:AF:95:71:58:BD:8E:01:80:20:2B:C3:6C:74

    Signature Algorithm: sha256WithRSAEncryption
         95:8b:f6:a8:15:81:50:f2:bb:38:31:d4:65:02:06:90:b0:e6:
         6d:56:a6:69:e2:19:8c:d2:45:f4:99:02:57:fd:d3:4f:59:11:
         4d:3e:95:07:ae:a8:15:de:e5:ad:3d:b0:c7:c8:28:f1:9a:00:
         8f:c3:0e:c4:54:88:97:29:54:6d:be:c6:4f:7c:c1:0c:df:33:
         b4:0f:dc:23:6d:c2:6f:16:07:b3:fa:be:7e:49:4b:68:5f:d7:
         8a:78:47:43:22:1f:7d:2c:b6:8f:5a:0e:32:57:0a:54:44:cf:
         8c:a8:d0:d9:aa:b6:73:d4:8d:a9:6e:41:d3:83:f2:21:6e:ab:
         03:96:b9:ff:b3:18:28:03:61:2e:8e:86:44:cb:06:53:74:3b:
         af:eb:8e:73:ea:98:fd:aa:27:92:4f:c7:26:df:99:89:32:da:
         d1:03:87:20:bb:09:90:3d:e7:2a:2c:6d:93:69:bf:77:6e:f0:
         e5:6e:b4:b5:e4:fd:f1:17:f4:e5:b2:ea:53:91:b9:b9:9e:63:
         51:8e:c9:70:e4:b2:e7:ea:f5:66:af:9e:f8:79:59:4b:9e:14:
         2d:9b:31:a6:a6:2d:2f:1e:92:51:f6:2b:c7:cc:33:89:bb:78:
         98:d7:c9:a9:0a:b7:c7:61:ab:dd:d2:56:2c:9c:93:ba:24:e5:
         58:e6:96:59
-----BEGIN CERTIFICATE-----
MIIDvzCCAqegAwIBAgIBATANBgkqhkiG9w0BAQsFADBqMQswCQYDVQQGEwJTUDEP
MA0GA1UECAwGTWFkcmlkMQ8wDQYDVQQHDAZNYWRyaWQxGDAWBgNVBAoMD1NFUiBD
b3Jwb3JhdGlvbjESMBAGA1UECwwJTWFya2V0aW5nMQswCQYDVQQDDAJDQTAeFw0x
ODAzMDYxMTE4MjJaFw0xOTAzMDYxMTE4MjJaMF8xCzAJBgNVBAYTAlNQMQ8wDQYD
VQQIDAZNYWRyaWQxGDAWBgNVBAoMD1NFUiBDb3Jwb3JhdGlvbjESMBAGA1UECwwJ
TWFya2V0aW5nMREwDwYDVQQDDAh1c3VhcmlvMTCCASIwDQYJKoZIhvcNAQEBBQAD
ggEPADCCAQoCggEBANUoqdLfK31FD3kRDu5maT11GKHU0ttvTj61Zu5NnEHnwSvb
zJZIi+qiXBlLt3MQn4pxjZHSY+CJ/7gTqk6+AFt4QJGN21/HkYednnvYd47gJwtC
xoQPwhVEjH13ReqtKRf7P+MAcGgFh/QRAf0xo46NUffKwXdVpfrYBSbjo1P1dmQt
Rw3o7oiD9u+o8fM1O85MPo18yBEnmm6OUsETyZi5NpGWKwi/sXskcZQ8FaXu/M+U
POPlwfj8SjZbFewmzanacvhTnWKEOJpNjMypwWa+Ff9RTjcGiqvoR+sOksZ4WZYa
j9Q82ydq4EjvyJOVrMWmyMJ+BKc0AnXXXnnQ/YkCAwEAAaN7MHkwCQYDVR0TBAIw
ADAsBglghkgBhvhCAQ0EHxYdT3BlblNTTCBHZW5lcmF0ZWQgQ2VydGlmaWNhdGUw
HQYDVR0OBBYEFJuWvUCXW2TK8s+6LggcCCFEyoSTMB8GA1UdIwQYMBaAFIRnowD0
isWvlXFYvY4BgCArw2x0MA0GCSqGSIb3DQEBCwUAA4IBAQCVi/aoFYFQ8rs4MdRl
AgaQsOZtVqZp4hmM0kX0mQJX/dNPWRFNPpUHrqgV3uWtPbDHyCjxmgCPww7EVIiX
KVRtvsZPfMEM3zO0D9wjbcJvFgez+r5+SUtoX9eKeEdDIh99LLaPWg4yVwpURM+M
qNDZqrZz1I2pbkHTg/IhbqsDlrn/sxgoA2EujoZEywZTdDuv645z6pj9qieST8cm
35mJMtrRA4cguwmQPecqLG2Tab93bvDlbrS15P3xF/TlsupTkbm5nmNRjslw5LLn
6vVmr574eVlLnhQtmzGmpi0vHpJR9ivHzDOJu3iY18mpCrfHYavd0lYsnJO6JOVY
5pZZ
-----END CERTIFICATE-----
